target datalayout = "e-m:e-p270:32:32-p271:32:32-p272:64:64-i64:64-i128:128-f80:128-n8:16:32:64-S128"
target triple = "x86_64-pc-linux-gnu"

%struct.anon = type { i32, [0 x i8] }
%struct.varattrib_1b = type { i8, [0 x i8] }
%struct.varattrib_1b_e = type { i8, i8, [0 x i8] }

; Function Attrs: inlinehint nounwind uwtable
define internal i64 @PointerGetDatum(ptr noundef %0) #0 {
  %2 = alloca ptr, align 8
  store ptr %0, ptr %2, align 8
  %3 = load ptr, ptr %2, align 8
  %4 = ptrtoint ptr %3 to i64
  ret i64 %4
}

; Function Attrs: inlinehint nounwind uwtable
define internal ptr @DatumGetPointer(i64 noundef %0) #0 {
  %2 = alloca i64, align 8
  store i64 %0, ptr %2, align 8
  %3 = load i64, ptr %2, align 8
  %4 = inttoptr i64 %3 to ptr
  ret ptr %4
}

; Function Attrs: nounwind uwtable
define internal i32 @varlenafastcmp_locale(i64 noundef %0, i64 noundef %1, ptr noundef %2) #1 {
  %4 = alloca i64, align 8
  %5 = alloca i64, align 8
  %6 = alloca ptr, align 8
  %7 = alloca ptr, align 8
  %8 = alloca ptr, align 8
  %9 = alloca ptr, align 8
  %10 = alloca ptr, align 8
  %11 = alloca i32, align 4
  %12 = alloca i32, align 4
  %13 = alloca i32, align 4
  store i64 %0, ptr %4, align 8
  store i64 %1, ptr %5, align 8
  store ptr %2, ptr %6, align 8
  call void @llvm.lifetime.start.p0(i64 8, ptr %7) #13
  %14 = load i64, ptr %4, align 8
  %15 = call ptr @DatumGetPointer(i64 noundef %14)
  %16 = call ptr @pg_detoast_datum_packed(ptr noundef %15)
  store ptr %16, ptr %7, align 8
  call void @llvm.lifetime.start.p0(i64 8, ptr %8) #13
  %17 = load i64, ptr %5, align 8
  %18 = call ptr @DatumGetPointer(i64 noundef %17)
  %19 = call ptr @pg_detoast_datum_packed(ptr noundef %18)
  store ptr %19, ptr %8, align 8
  call void @llvm.lifetime.start.p0(i64 8, ptr %9) #13
  call void @llvm.lifetime.start.p0(i64 8, ptr %10) #13
  call void @llvm.lifetime.start.p0(i64 4, ptr %11) #13
  call void @llvm.lifetime.start.p0(i64 4, ptr %12) #13
  call void @llvm.lifetime.start.p0(i64 4, ptr %13) #13
  %20 = load ptr, ptr %7, align 8
  %21 = getelementptr inbounds nuw %struct.varattrib_1b, ptr %20, i32 0, i32 0
  %22 = load i8, ptr %21, align 1
  %23 = zext i8 %22 to i32
  %24 = and i32 %23, 1
  %25 = icmp eq i32 %24, 1
  br i1 %25, label %26, label %30

26:                                               ; preds = %3
  %27 = load ptr, ptr %7, align 8
  %28 = getelementptr inbounds nuw %struct.varattrib_1b, ptr %27, i32 0, i32 1
  %29 = getelementptr inbounds [0 x i8], ptr %28, i64 0, i64 0
  br label %34

30:                                               ; preds = %3
  %31 = load ptr, ptr %7, align 8
  %32 = getelementptr inbounds nuw %struct.anon, ptr %31, i32 0, i32 1
  %33 = getelementptr inbounds [0 x i8], ptr %32, i64 0, i64 0
  br label %34

34:                                               ; preds = %30, %26
  %35 = phi ptr [ %29, %26 ], [ %33, %30 ]
  store ptr %35, ptr %9, align 8
  %36 = load ptr, ptr %8, align 8
  %37 = getelementptr inbounds nuw %struct.varattrib_1b, ptr %36, i32 0, i32 0
  %38 = load i8, ptr %37, align 1
  %39 = zext i8 %38 to i32
  %40 = and i32 %39, 1
  %41 = icmp eq i32 %40, 1
  br i1 %41, label %42, label %46

42:                                               ; preds = %34
  %43 = load ptr, ptr %8, align 8
  %44 = getelementptr inbounds nuw %struct.varattrib_1b, ptr %43, i32 0, i32 1
  %45 = getelementptr inbounds [0 x i8], ptr %44, i64 0, i64 0
  br label %50

46:                                               ; preds = %34
  %47 = load ptr, ptr %8, align 8
  %48 = getelementptr inbounds nuw %struct.anon, ptr %47, i32 0, i32 1
  %49 = getelementptr inbounds [0 x i8], ptr %48, i64 0, i64 0
  br label %50

50:                                               ; preds = %46, %42
  %51 = phi ptr [ %45, %42 ], [ %49, %46 ]
  store ptr %51, ptr %10, align 8
  %52 = load ptr, ptr %7, align 8
  %53 = getelementptr inbounds nuw %struct.varattrib_1b, ptr %52, i32 0, i32 0
  %54 = load i8, ptr %53, align 1
  %55 = zext i8 %54 to i32
  %56 = icmp eq i32 %55, 1
  br i1 %56, label %57, label %85

57:                                               ; preds = %50
  %58 = load ptr, ptr %7, align 8
  %59 = getelementptr inbounds nuw %struct.varattrib_1b_e, ptr %58, i32 0, i32 1
  %60 = load i8, ptr %59, align 1
  %61 = zext i8 %60 to i32
  %62 = icmp eq i32 %61, 1
  br i1 %62, label %63, label %64

63:                                               ; preds = %57
  br label %81

64:                                               ; preds = %57
  %65 = load ptr, ptr %7, align 8
  %66 = getelementptr inbounds nuw %struct.varattrib_1b_e, ptr %65, i32 0, i32 1
  %67 = load i8, ptr %66, align 1
  %68 = zext i8 %67 to i32
  %69 = and i32 %68, -2
  %70 = icmp eq i32 %69, 2
  br i1 %70, label %71, label %72

71:                                               ; preds = %64
  br label %79

72:                                               ; preds = %64
  %73 = load ptr, ptr %7, align 8
  %74 = getelementptr inbounds nuw %struct.varattrib_1b_e, ptr %73, i32 0, i32 1
  %75 = load i8, ptr %74, align 1
  %76 = zext i8 %75 to i32
  %77 = icmp eq i32 %76, 18
  %78 = select i1 %77, i64 16, i64 0
  br label %79

79:                                               ; preds = %72, %71
  %80 = phi i64 [ 8, %71 ], [ %78, %72 ]
  br label %81

81:                                               ; preds = %79, %63
  %82 = phi i64 [ 8, %63 ], [ %80, %79 ]
  %83 = add i64 2, %82
  %84 = sub i64 %83, 2
  br label %111

85:                                               ; preds = %50
  %86 = load ptr, ptr %7, align 8
  %87 = getelementptr inbounds nuw %struct.varattrib_1b, ptr %86, i32 0, i32 0
  %88 = load i8, ptr %87, align 1
  %89 = zext i8 %88 to i32
  %90 = and i32 %89, 1
  %91 = icmp eq i32 %90, 1
  br i1 %91, label %92, label %101

92:                                               ; preds = %85
  %93 = load ptr, ptr %7, align 8
  %94 = getelementptr inbounds nuw %struct.varattrib_1b, ptr %93, i32 0, i32 0
  %95 = load i8, ptr %94, align 1
  %96 = zext i8 %95 to i32
  %97 = ashr i32 %96, 1
  %98 = and i32 %97, 127
  %99 = sext i32 %98 to i64
  %100 = sub i64 %99, 1
  br label %109

101:                                              ; preds = %85
  %102 = load ptr, ptr %7, align 8
  %103 = getelementptr inbounds nuw %struct.anon, ptr %102, i32 0, i32 0
  %104 = load i32, ptr %103, align 4
  %105 = lshr i32 %104, 2
  %106 = and i32 %105, 1073741823
  %107 = sub i32 %106, 4
  %108 = zext i32 %107 to i64
  br label %109

109:                                              ; preds = %101, %92
  %110 = phi i64 [ %100, %92 ], [ %108, %101 ]
  br label %111

111:                                              ; preds = %109, %81
  %112 = phi i64 [ %84, %81 ], [ %110, %109 ]
  %113 = trunc i64 %112 to i32
  store i32 %113, ptr %11, align 4
  %114 = load ptr, ptr %8, align 8
  %115 = getelementptr inbounds nuw %struct.varattrib_1b, ptr %114, i32 0, i32 0
  %116 = load i8, ptr %115, align 1
  %117 = zext i8 %116 to i32
  %118 = icmp eq i32 %117, 1
  br i1 %118, label %119, label %147

119:                                              ; preds = %111
  %120 = load ptr, ptr %8, align 8
  %121 = getelementptr inbounds nuw %struct.varattrib_1b_e, ptr %120, i32 0, i32 1
  %122 = load i8, ptr %121, align 1
  %123 = zext i8 %122 to i32
  %124 = icmp eq i32 %123, 1
  br i1 %124, label %125, label %126

125:                                              ; preds = %119
  br label %143

126:                                              ; preds = %119
  %127 = load ptr, ptr %8, align 8
  %128 = getelementptr inbounds nuw %struct.varattrib_1b_e, ptr %127, i32 0, i32 1
  %129 = load i8, ptr %128, align 1
  %130 = zext i8 %129 to i32
  %131 = and i32 %130, -2
  %132 = icmp eq i32 %131, 2
  br i1 %132, label %133, label %134

133:                                              ; preds = %126
  br label %141

134:                                              ; preds = %126
  %135 = load ptr, ptr %8, align 8
  %136 = getelementptr inbounds nuw %struct.varattrib_1b_e, ptr %135, i32 0, i32 1
  %137 = load i8, ptr %136, align 1
  %138 = zext i8 %137 to i32
  %139 = icmp eq i32 %138, 18
  %140 = select i1 %139, i64 16, i64 0
  br label %141

141:                                              ; preds = %134, %133
  %142 = phi i64 [ 8, %133 ], [ %140, %134 ]
  br label %143

143:                                              ; preds = %141, %125
  %144 = phi i64 [ 8, %125 ], [ %142, %141 ]
  %145 = add i64 2, %144
  %146 = sub i64 %145, 2
  br label %173

147:                                              ; preds = %111
  %148 = load ptr, ptr %8, align 8
  %149 = getelementptr inbounds nuw %struct.varattrib_1b, ptr %148, i32 0, i32 0
  %150 = load i8, ptr %149, align 1
  %151 = zext i8 %150 to i32
  %152 = and i32 %151, 1
  %153 = icmp eq i32 %152, 1
  br i1 %153, label %154, label %163

154:                                              ; preds = %147
  %155 = load ptr, ptr %8, align 8
  %156 = getelementptr inbounds nuw %struct.varattrib_1b, ptr %155, i32 0, i32 0
  %157 = load i8, ptr %156, align 1
  %158 = zext i8 %157 to i32
  %159 = ashr i32 %158, 1
  %160 = and i32 %159, 127
  %161 = sext i32 %160 to i64
  %162 = sub i64 %161, 1
  br label %171

163:                                              ; preds = %147
  %164 = load ptr, ptr %8, align 8
  %165 = getelementptr inbounds nuw %struct.anon, ptr %164, i32 0, i32 0
  %166 = load i32, ptr %165, align 4
  %167 = lshr i32 %166, 2
  %168 = and i32 %167, 1073741823
  %169 = sub i32 %168, 4
  %170 = zext i32 %169 to i64
  br label %171

171:                                              ; preds = %163, %154
  %172 = phi i64 [ %162, %154 ], [ %170, %163 ]
  br label %173

173:                                              ; preds = %171, %143
  %174 = phi i64 [ %146, %143 ], [ %172, %171 ]
  %175 = trunc i64 %174 to i32
  store i32 %175, ptr %12, align 4
  %176 = load ptr, ptr %9, align 8
  %177 = load i32, ptr %11, align 4
  %178 = load ptr, ptr %10, align 8
  %179 = load i32, ptr %12, align 4
  %180 = load ptr, ptr %6, align 8
  %181 = call i32 @varstrfastcmp_locale(ptr noundef %176, i32 noundef %177, ptr noundef %178, i32 noundef %179, ptr noundef %180)
  store i32 %181, ptr %13, align 4
  %182 = load ptr, ptr %7, align 8
  %183 = call i64 @PointerGetDatum(ptr noundef %182)
  %184 = load i64, ptr %4, align 8
  %185 = icmp ne i64 %183, %184
  br i1 %185, label %186, label %188

186:                                              ; preds = %173
  %187 = load ptr, ptr %7, align 8
  call void @pfree(ptr noundef %187)
  br label %188

188:                                              ; preds = %186, %173
  %189 = load ptr, ptr %8, align 8
  %190 = call i64 @PointerGetDatum(ptr noundef %189)
  %191 = load i64, ptr %5, align 8
  %192 = icmp ne i64 %190, %191
  br i1 %192, label %193, label %195

193:                                              ; preds = %188
  %194 = load ptr, ptr %8, align 8
  call void @pfree(ptr noundef %194)
  br label %195

195:                                              ; preds = %193, %188
  %196 = load i32, ptr %13, align 4
  call void @llvm.lifetime.end.p0(i64 4, ptr %13) #13
  call void @llvm.lifetime.end.p0(i64 4, ptr %12) #13
  call void @llvm.lifetime.end.p0(i64 4, ptr %11) #13
  call void @llvm.lifetime.end.p0(i64 8, ptr %10) #13
  call void @llvm.lifetime.end.p0(i64 8, ptr %9) #13
  call void @llvm.lifetime.end.p0(i64 8, ptr %8) #13
  call void @llvm.lifetime.end.p0(i64 8, ptr %7) #13
  ret i32 %196
}