; Function Attrs: nounwind uwtable
define internal i32 @varlenafastcmp_locale(i64 noundef %0, i64 noundef %1, ptr noundef readonly captures(none) %2) #0 {
  %4 = inttoptr i64 %0 to ptr
  %5 = tail call ptr @pg_detoast_datum_packed(ptr noundef %4) #19
  %6 = inttoptr i64 %1 to ptr
  %7 = tail call ptr @pg_detoast_datum_packed(ptr noundef %6) #19
  %8 = load i8, ptr %5, align 1
  %9 = zext i8 %8 to i32
  %10 = and i32 %9, 1
  %.not = icmp eq i32 %10, 0
  %11 = getelementptr inbounds nuw i8, ptr %5, i64 1
  %12 = getelementptr inbounds nuw i8, ptr %5, i64 4
  %13 = select i1 %.not, ptr %12, ptr %11
  %14 = load i8, ptr %7, align 1
  %15 = and i8 %14, 1
  %.not36 = icmp eq i8 %15, 0
  %16 = getelementptr inbounds nuw i8, ptr %7, i64 1
  %17 = getelementptr inbounds nuw i8, ptr %7, i64 4
  %18 = select i1 %.not36, ptr %17, ptr %16
  %19 = icmp eq i8 %8, 1
  br i1 %19, label %20, label %28

20:                                               ; preds = %3
  %21 = load i8, ptr %11, align 1
  %22 = icmp eq i8 %21, 1
  %23 = and i8 %21, -2
  %24 = icmp eq i8 %23, 2
  %or.cond = or i1 %22, %24
  %25 = icmp eq i8 %21, 18
  %26 = select i1 %25, i32 16, i32 0
  %27 = select i1 %or.cond, i32 8, i32 %26
  br label %36

28:                                               ; preds = %3
  br i1 %.not, label %32, label %29

29:                                               ; preds = %28
  %30 = lshr i32 %9, 1
  %31 = add nsw i32 %30, -1
  br label %36

32:                                               ; preds = %28
  %33 = load i32, ptr %5, align 4
  %34 = lshr i32 %33, 2
  %35 = add nsw i32 %34, -4
  br label %36

36:                                               ; preds = %29, %32, %20
  %37 = phi i32 [ %27, %20 ], [ %31, %29 ], [ %35, %32 ]
  %38 = zext i8 %14 to i32
  %39 = icmp eq i8 %14, 1
  br i1 %39, label %40, label %48

40:                                               ; preds = %36
  %41 = load i8, ptr %16, align 1
  %42 = icmp eq i8 %41, 1
  %43 = and i8 %41, -2
  %44 = icmp eq i8 %43, 2
  %or.cond42 = or i1 %42, %44
  %45 = icmp eq i8 %41, 18
  %46 = select i1 %45, i32 16, i32 0
  %47 = select i1 %or.cond42, i32 8, i32 %46
  br label %57

48:                                               ; preds = %36
  %49 = and i32 %38, 1
  %.not37 = icmp eq i32 %49, 0
  br i1 %.not37, label %53, label %50

50:                                               ; preds = %48
  %51 = lshr i32 %38, 1
  %52 = add nsw i32 %51, -1
  br label %57

53:                                               ; preds = %48
  %54 = load i32, ptr %7, align 4
  %55 = lshr i32 %54, 2
  %56 = add nsw i32 %55, -4
  br label %57

57:                                               ; preds = %50, %53, %40
  %58 = phi i32 [ %47, %40 ], [ %52, %50 ], [ %56, %53 ]
  %59 = getelementptr i8, ptr %2, i64 16
  %.val = load ptr, ptr %59, align 8
  %60 = tail call fastcc i32 @varstrfastcmp_locale(ptr noundef nonnull %13, i32 noundef %37, ptr noundef nonnull %18, i32 noundef %58, ptr %.val)
  %61 = ptrtoint ptr %5 to i64
  %.not38 = icmp eq i64 %0, %61
  br i1 %.not38, label %63, label %62

62:                                               ; preds = %57
  tail call void @pfree(ptr noundef nonnull %5) #19
  br label %63

63:                                               ; preds = %62, %57
  %64 = ptrtoint ptr %7 to i64
  %.not39 = icmp eq i64 %1, %64
  br i1 %.not39, label %66, label %65

65:                                               ; preds = %63
  tail call void @pfree(ptr noundef nonnull %7) #19
  br label %66

66:                                               ; preds = %65, %63
  ret i32 %60
}